; Function Attrs: mustprogress uwtable
define internal noundef range(i32 0, 3) i32 @_ZL34handshaker_result_get_unused_bytesPK21tsi_handshaker_resultPPKhPm(ptr noundef readonly %0, ptr noundef writeonly %1, ptr noundef writeonly %2) #3 personality ptr @__gxx_personality_v0 {
  %4 = alloca %"class.absl::lts_20240722::log_internal::LogMessage", align 8
  %5 = icmp eq ptr %0, null
  %6 = icmp eq ptr %1, null
  %or.cond = or i1 %5, %6
  %7 = icmp eq ptr %2, null
  %or.cond3 = or i1 %or.cond, %7
  br i1 %or.cond3, label %8, label %11

8:                                                ; preds = %3
  call void @llvm.lifetime.start.p0(i64 16, ptr nonnull %4) #29
  call void @_ZN4absl12lts_2024072212log_internal10LogMessageC1EPKciNS2_8ErrorTagE(ptr noundef nonnull align 8 dereferenceable(16) %4, ptr noundef nonnull @.str, i32 noundef 227) #30
  invoke void @_ZN4absl12lts_2024072212log_internal10LogMessage19CopyToEncodedBufferILNS2_10StringTypeE0EEEvSt17basic_string_viewIcSt11char_traitsIcEE(ptr noundef nonnull align 8 dereferenceable(16) %4, i64 57, ptr nonnull @.str.36)
          to label %_ZN4absl12lts_2024072212log_internal10LogMessagelsILi58EEERS2_RAT__Kc.exit unwind label %9

_ZN4absl12lts_2024072212log_internal10LogMessagelsILi58EEERS2_RAT__Kc.exit: ; preds = %8
  call void @_ZN4absl12lts_2024072212log_internal10LogMessageD1Ev(ptr noundef nonnull align 8 dereferenceable(16) %4) #31
  call void @llvm.lifetime.end.p0(i64 16, ptr nonnull %4) #29
  br label %16

9:                                                ; preds = %8
  %10 = landingpad { ptr, i32 }
          cleanup
  call void @_ZN4absl12lts_2024072212log_internal10LogMessageD1Ev(ptr noundef nonnull align 8 dereferenceable(16) %4) #31
  call void @llvm.lifetime.end.p0(i64 16, ptr nonnull %4) #29
  resume { ptr, i32 } %10

11:                                               ; preds = %3
  %12 = getelementptr inbounds nuw i8, ptr %0, i64 24
  %13 = load ptr, ptr %12, align 8, !tbaa !79
  store ptr %13, ptr %1, align 8, !tbaa !42
  %14 = getelementptr inbounds nuw i8, ptr %0, i64 32
  %15 = load i64, ptr %14, align 8, !tbaa !78
  store i64 %15, ptr %2, align 8, !tbaa !43
  br label %16

16:                                               ; preds = %11, %_ZN4absl12lts_2024072212log_internal10LogMessagelsILi58EEERS2_RAT__Kc.exit
  %.0 = phi i32 [ 2, %_ZN4absl12lts_2024072212log_internal10LogMessagelsILi58EEERS2_RAT__Kc.exit ], [ 0, %11 ]
  ret i32 %.0
}